target datalayout = "e-m:e-p270:32:32-p271:32:32-p272:64:64-i64:64-i128:128-f80:128-n8:16:32:64-S128"
target triple = "x86_64-pc-linux-gnu"

%struct.archive_rb_tree = type { ptr, ptr }
%struct.isoent = type { %struct.archive_rb_node, ptr, ptr, %struct.anon.3, %struct.archive_rb_tree, %struct.anon.4, ptr, ptr, ptr, ptr, i32, %struct.anon.5, i32, i32, ptr, i32, i32, i32, i32, ptr, ptr, %struct.anon.6, i8 }
%struct.archive_rb_node = type { [2 x ptr], i64 }
%struct.anon.3 = type { ptr, ptr, i32 }
%struct.anon.4 = type { ptr, ptr, i32 }
%struct.anon.5 = type { i32, i32, i32, i32 }
%struct.anon.6 = type { ptr, ptr, ptr }

; Function Attrs: nounwind uwtable
define internal i32 @isoent_cmp_joliet_identifier(ptr noundef %0, ptr noundef %1) #0 {
  %3 = alloca i32, align 4
  %4 = alloca ptr, align 8
  %5 = alloca ptr, align 8
  %6 = alloca ptr, align 8
  %7 = alloca ptr, align 8
  %8 = alloca i32, align 4
  %9 = alloca i32, align 4
  %10 = alloca i32, align 4
  store ptr %0, ptr %4, align 8, !tbaa !141
  store ptr %1, ptr %5, align 8, !tbaa !141
  call void @llvm.lifetime.start.p0(i64 8, ptr %6) #13
  call void @llvm.lifetime.start.p0(i64 8, ptr %7) #13
  call void @llvm.lifetime.start.p0(i64 4, ptr %8) #13
  call void @llvm.lifetime.start.p0(i64 4, ptr %9) #13
  %11 = load ptr, ptr %4, align 8, !tbaa !141
  %12 = getelementptr inbounds nuw %struct.isoent, ptr %11, i32 0, i32 14
  %13 = load ptr, ptr %12, align 8, !tbaa !237
  store ptr %13, ptr %6, align 8, !tbaa !133
  %14 = load ptr, ptr %5, align 8, !tbaa !141
  %15 = getelementptr inbounds nuw %struct.isoent, ptr %14, i32 0, i32 14
  %16 = load ptr, ptr %15, align 8, !tbaa !237
  store ptr %16, ptr %7, align 8, !tbaa !133
  %17 = load ptr, ptr %4, align 8, !tbaa !141
  %18 = getelementptr inbounds nuw %struct.isoent, ptr %17, i32 0, i32 15
  %19 = load i32, ptr %18, align 8, !tbaa !363
  store i32 %19, ptr %9, align 4, !tbaa !11
  %20 = load i32, ptr %9, align 4, !tbaa !11
  %21 = load ptr, ptr %5, align 8, !tbaa !141
  %22 = getelementptr inbounds nuw %struct.isoent, ptr %21, i32 0, i32 15
  %23 = load i32, ptr %22, align 8, !tbaa !363
  %24 = icmp sgt i32 %20, %23
  br i1 %24, label %25, label %29

25:                                               ; preds = %2
  %26 = load ptr, ptr %5, align 8, !tbaa !141
  %27 = getelementptr inbounds nuw %struct.isoent, ptr %26, i32 0, i32 15
  %28 = load i32, ptr %27, align 8, !tbaa !363
  store i32 %28, ptr %9, align 4, !tbaa !11
  br label %29

29:                                               ; preds = %25, %2
  %30 = load ptr, ptr %6, align 8, !tbaa !133
  %31 = load ptr, ptr %7, align 8, !tbaa !133
  %32 = load i32, ptr %9, align 4, !tbaa !11
  %33 = sext i32 %32 to i64
  %34 = call i32 @memcmp(ptr noundef %30, ptr noundef %31, i64 noundef %33) #15
  store i32 %34, ptr %8, align 4, !tbaa !11
  %35 = load i32, ptr %8, align 4, !tbaa !11
  %36 = icmp ne i32 %35, 0
  br i1 %36, label %37, label %39

37:                                               ; preds = %29
  %38 = load i32, ptr %8, align 4, !tbaa !11
  store i32 %38, ptr %3, align 4
  store i32 1, ptr %10, align 4
  br label %270

39:                                               ; preds = %29
  %40 = load ptr, ptr %4, align 8, !tbaa !141
  %41 = getelementptr inbounds nuw %struct.isoent, ptr %40, i32 0, i32 15
  %42 = load i32, ptr %41, align 8, !tbaa !363
  %43 = load ptr, ptr %5, align 8, !tbaa !141
  %44 = getelementptr inbounds nuw %struct.isoent, ptr %43, i32 0, i32 15
  %45 = load i32, ptr %44, align 8, !tbaa !363
  %46 = icmp slt i32 %42, %45
  br i1 %46, label %47, label %77

47:                                               ; preds = %39
  %48 = load i32, ptr %9, align 4, !tbaa !11
  %49 = load ptr, ptr %7, align 8, !tbaa !133
  %50 = sext i32 %48 to i64
  %51 = getelementptr inbounds i8, ptr %49, i64 %50
  store ptr %51, ptr %7, align 8, !tbaa !133
  %52 = load ptr, ptr %5, align 8, !tbaa !141
  %53 = getelementptr inbounds nuw %struct.isoent, ptr %52, i32 0, i32 15
  %54 = load i32, ptr %53, align 8, !tbaa !363
  %55 = load ptr, ptr %4, align 8, !tbaa !141
  %56 = getelementptr inbounds nuw %struct.isoent, ptr %55, i32 0, i32 15
  %57 = load i32, ptr %56, align 8, !tbaa !363
  %58 = sub nsw i32 %54, %57
  store i32 %58, ptr %9, align 4, !tbaa !11
  br label %59

59:                                               ; preds = %75, %47
  %60 = load i32, ptr %9, align 4, !tbaa !11
  %61 = add nsw i32 %60, -1
  store i32 %61, ptr %9, align 4, !tbaa !11
  %62 = icmp ne i32 %60, 0
  br i1 %62, label %63, label %76

63:                                               ; preds = %59
  %64 = load ptr, ptr %7, align 8, !tbaa !133
  %65 = getelementptr inbounds nuw i8, ptr %64, i32 1
  store ptr %65, ptr %7, align 8, !tbaa !133
  %66 = load i8, ptr %64, align 1, !tbaa !117
  %67 = zext i8 %66 to i32
  %68 = icmp ne i32 0, %67
  br i1 %68, label %69, label %75

69:                                               ; preds = %63
  %70 = load ptr, ptr %7, align 8, !tbaa !133
  %71 = getelementptr inbounds i8, ptr %70, i64 -1
  %72 = load i8, ptr %71, align 1, !tbaa !117
  %73 = zext i8 %72 to i32
  %74 = sub nsw i32 0, %73
  store i32 %74, ptr %3, align 4
  store i32 1, ptr %10, align 4
  br label %270

75:                                               ; preds = %63
  br label %59, !llvm.loop !390

76:                                               ; preds = %59
  br label %115

77:                                               ; preds = %39
  %78 = load ptr, ptr %4, align 8, !tbaa !141
  %79 = getelementptr inbounds nuw %struct.isoent, ptr %78, i32 0, i32 15
  %80 = load i32, ptr %79, align 8, !tbaa !363
  %81 = load ptr, ptr %5, align 8, !tbaa !141
  %82 = getelementptr inbounds nuw %struct.isoent, ptr %81, i32 0, i32 15
  %83 = load i32, ptr %82, align 8, !tbaa !363
  %84 = icmp sgt i32 %80, %83
  br i1 %84, label %85, label %114

85:                                               ; preds = %77
  %86 = load i32, ptr %9, align 4, !tbaa !11
  %87 = load ptr, ptr %6, align 8, !tbaa !133
  %88 = sext i32 %86 to i64
  %89 = getelementptr inbounds i8, ptr %87, i64 %88
  store ptr %89, ptr %6, align 8, !tbaa !133
  %90 = load ptr, ptr %4, align 8, !tbaa !141
  %91 = getelementptr inbounds nuw %struct.isoent, ptr %90, i32 0, i32 15
  %92 = load i32, ptr %91, align 8, !tbaa !363
  %93 = load ptr, ptr %5, align 8, !tbaa !141
  %94 = getelementptr inbounds nuw %struct.isoent, ptr %93, i32 0, i32 15
  %95 = load i32, ptr %94, align 8, !tbaa !363
  %96 = sub nsw i32 %92, %95
  store i32 %96, ptr %9, align 4, !tbaa !11
  br label %97

97:                                               ; preds = %112, %85
  %98 = load i32, ptr %9, align 4, !tbaa !11
  %99 = add nsw i32 %98, -1
  store i32 %99, ptr %9, align 4, !tbaa !11
  %100 = icmp ne i32 %98, 0
  br i1 %100, label %101, label %113

101:                                              ; preds = %97
  %102 = load ptr, ptr %6, align 8, !tbaa !133
  %103 = getelementptr inbounds nuw i8, ptr %102, i32 1
  store ptr %103, ptr %6, align 8, !tbaa !133
  %104 = load i8, ptr %102, align 1, !tbaa !117
  %105 = zext i8 %104 to i32
  %106 = icmp ne i32 0, %105
  br i1 %106, label %107, label %112

107:                                              ; preds = %101
  %108 = load ptr, ptr %6, align 8, !tbaa !133
  %109 = getelementptr inbounds i8, ptr %108, i64 -1
  %110 = load i8, ptr %109, align 1, !tbaa !117
  %111 = zext i8 %110 to i32
  store i32 %111, ptr %3, align 4
  store i32 1, ptr %10, align 4
  br label %270

112:                                              ; preds = %101
  br label %97, !llvm.loop !391

113:                                              ; preds = %97
  br label %114

114:                                              ; preds = %113, %77
  br label %115

115:                                              ; preds = %114, %76
  %116 = load ptr, ptr %4, align 8, !tbaa !141
  %117 = getelementptr inbounds nuw %struct.isoent, ptr %116, i32 0, i32 16
  %118 = load i32, ptr %117, align 4, !tbaa !364
  %119 = icmp eq i32 %118, 0
  br i1 %119, label %120, label %126

120:                                              ; preds = %115
  %121 = load ptr, ptr %5, align 8, !tbaa !141
  %122 = getelementptr inbounds nuw %struct.isoent, ptr %121, i32 0, i32 16
  %123 = load i32, ptr %122, align 4, !tbaa !364
  %124 = icmp eq i32 %123, 0
  br i1 %124, label %125, label %126

125:                                              ; preds = %120
  store i32 0, ptr %3, align 4
  store i32 1, ptr %10, align 4
  br label %270

126:                                              ; preds = %120, %115
  %127 = load ptr, ptr %4, align 8, !tbaa !141
  %128 = getelementptr inbounds nuw %struct.isoent, ptr %127, i32 0, i32 16
  %129 = load i32, ptr %128, align 4, !tbaa !364
  %130 = icmp eq i32 %129, 2
  br i1 %130, label %131, label %137

131:                                              ; preds = %126
  %132 = load ptr, ptr %5, align 8, !tbaa !141
  %133 = getelementptr inbounds nuw %struct.isoent, ptr %132, i32 0, i32 16
  %134 = load i32, ptr %133, align 4, !tbaa !364
  %135 = icmp eq i32 %134, 2
  br i1 %135, label %136, label %137

136:                                              ; preds = %131
  store i32 0, ptr %3, align 4
  store i32 1, ptr %10, align 4
  br label %270

137:                                              ; preds = %131, %126
  %138 = load ptr, ptr %4, align 8, !tbaa !141
  %139 = getelementptr inbounds nuw %struct.isoent, ptr %138, i32 0, i32 16
  %140 = load i32, ptr %139, align 4, !tbaa !364
  %141 = icmp sle i32 %140, 2
  br i1 %141, label %142, label %143

142:                                              ; preds = %137
  store i32 -1, ptr %3, align 4
  store i32 1, ptr %10, align 4
  br label %270

143:                                              ; preds = %137
  %144 = load ptr, ptr %5, align 8, !tbaa !141
  %145 = getelementptr inbounds nuw %struct.isoent, ptr %144, i32 0, i32 16
  %146 = load i32, ptr %145, align 4, !tbaa !364
  %147 = icmp sle i32 %146, 2
  br i1 %147, label %148, label %149

148:                                              ; preds = %143
  store i32 1, ptr %3, align 4
  store i32 1, ptr %10, align 4
  br label %270

149:                                              ; preds = %143
  %150 = load ptr, ptr %4, align 8, !tbaa !141
  %151 = getelementptr inbounds nuw %struct.isoent, ptr %150, i32 0, i32 16
  %152 = load i32, ptr %151, align 4, !tbaa !364
  store i32 %152, ptr %9, align 4, !tbaa !11
  %153 = load i32, ptr %9, align 4, !tbaa !11
  %154 = load ptr, ptr %5, align 8, !tbaa !141
  %155 = getelementptr inbounds nuw %struct.isoent, ptr %154, i32 0, i32 16
  %156 = load i32, ptr %155, align 4, !tbaa !364
  %157 = icmp sgt i32 %153, %156
  br i1 %157, label %158, label %162

158:                                              ; preds = %149
  %159 = load ptr, ptr %5, align 8, !tbaa !141
  %160 = getelementptr inbounds nuw %struct.isoent, ptr %159, i32 0, i32 16
  %161 = load i32, ptr %160, align 4, !tbaa !364
  store i32 %161, ptr %9, align 4, !tbaa !11
  br label %162

162:                                              ; preds = %158, %149
  %163 = load ptr, ptr %4, align 8, !tbaa !141
  %164 = getelementptr inbounds nuw %struct.isoent, ptr %163, i32 0, i32 14
  %165 = load ptr, ptr %164, align 8, !tbaa !237
  %166 = load ptr, ptr %4, align 8, !tbaa !141
  %167 = getelementptr inbounds nuw %struct.isoent, ptr %166, i32 0, i32 15
  %168 = load i32, ptr %167, align 8, !tbaa !363
  %169 = sext i32 %168 to i64
  %170 = getelementptr inbounds i8, ptr %165, i64 %169
  store ptr %170, ptr %6, align 8, !tbaa !133
  %171 = load ptr, ptr %5, align 8, !tbaa !141
  %172 = getelementptr inbounds nuw %struct.isoent, ptr %171, i32 0, i32 14
  %173 = load ptr, ptr %172, align 8, !tbaa !237
  %174 = load ptr, ptr %5, align 8, !tbaa !141
  %175 = getelementptr inbounds nuw %struct.isoent, ptr %174, i32 0, i32 15
  %176 = load i32, ptr %175, align 8, !tbaa !363
  %177 = sext i32 %176 to i64
  %178 = getelementptr inbounds i8, ptr %173, i64 %177
  store ptr %178, ptr %7, align 8, !tbaa !133
  %179 = load i32, ptr %9, align 4, !tbaa !11
  %180 = icmp sgt i32 %179, 1
  br i1 %180, label %181, label %192

181:                                              ; preds = %162
  %182 = load ptr, ptr %6, align 8, !tbaa !133
  %183 = load ptr, ptr %7, align 8, !tbaa !133
  %184 = load i32, ptr %9, align 4, !tbaa !11
  %185 = sext i32 %184 to i64
  %186 = call i32 @memcmp(ptr noundef %182, ptr noundef %183, i64 noundef %185) #15
  store i32 %186, ptr %8, align 4, !tbaa !11
  %187 = load i32, ptr %8, align 4, !tbaa !11
  %188 = icmp ne i32 %187, 0
  br i1 %188, label %189, label %191

189:                                              ; preds = %181
  %190 = load i32, ptr %8, align 4, !tbaa !11
  store i32 %190, ptr %3, align 4
  store i32 1, ptr %10, align 4
  br label %270

191:                                              ; preds = %181
  br label %192

192:                                              ; preds = %191, %162
  %193 = load ptr, ptr %4, align 8, !tbaa !141
  %194 = getelementptr inbounds nuw %struct.isoent, ptr %193, i32 0, i32 16
  %195 = load i32, ptr %194, align 4, !tbaa !364
  %196 = load ptr, ptr %5, align 8, !tbaa !141
  %197 = getelementptr inbounds nuw %struct.isoent, ptr %196, i32 0, i32 16
  %198 = load i32, ptr %197, align 4, !tbaa !364
  %199 = icmp slt i32 %195, %198
  br i1 %199, label %200, label %230

200:                                              ; preds = %192
  %201 = load i32, ptr %9, align 4, !tbaa !11
  %202 = load ptr, ptr %7, align 8, !tbaa !133
  %203 = sext i32 %201 to i64
  %204 = getelementptr inbounds i8, ptr %202, i64 %203
  store ptr %204, ptr %7, align 8, !tbaa !133
  %205 = load ptr, ptr %5, align 8, !tbaa !141
  %206 = getelementptr inbounds nuw %struct.isoent, ptr %205, i32 0, i32 16
  %207 = load i32, ptr %206, align 4, !tbaa !364
  %208 = load ptr, ptr %4, align 8, !tbaa !141
  %209 = getelementptr inbounds nuw %struct.isoent, ptr %208, i32 0, i32 16
  %210 = load i32, ptr %209, align 4, !tbaa !364
  %211 = sub nsw i32 %207, %210
  store i32 %211, ptr %9, align 4, !tbaa !11
  br label %212

212:                                              ; preds = %228, %200
  %213 = load i32, ptr %9, align 4, !tbaa !11
  %214 = add nsw i32 %213, -1
  store i32 %214, ptr %9, align 4, !tbaa !11
  %215 = icmp ne i32 %213, 0
  br i1 %215, label %216, label %229

216:                                              ; preds = %212
  %217 = load ptr, ptr %7, align 8, !tbaa !133
  %218 = getelementptr inbounds nuw i8, ptr %217, i32 1
  store ptr %218, ptr %7, align 8, !tbaa !133
  %219 = load i8, ptr %217, align 1, !tbaa !117
  %220 = zext i8 %219 to i32
  %221 = icmp ne i32 0, %220
  br i1 %221, label %222, label %228

222:                                              ; preds = %216
  %223 = load ptr, ptr %7, align 8, !tbaa !133
  %224 = getelementptr inbounds i8, ptr %223, i64 -1
  %225 = load i8, ptr %224, align 1, !tbaa !117
  %226 = zext i8 %225 to i32
  %227 = sub nsw i32 0, %226
  store i32 %227, ptr %3, align 4
  store i32 1, ptr %10, align 4
  br label %270

228:                                              ; preds = %216
  br label %212, !llvm.loop !392

229:                                              ; preds = %212
  br label %268

230:                                              ; preds = %192
  %231 = load ptr, ptr %4, align 8, !tbaa !141
  %232 = getelementptr inbounds nuw %struct.isoent, ptr %231, i32 0, i32 16
  %233 = load i32, ptr %232, align 4, !tbaa !364
  %234 = load ptr, ptr %5, align 8, !tbaa !141
  %235 = getelementptr inbounds nuw %struct.isoent, ptr %234, i32 0, i32 16
  %236 = load i32, ptr %235, align 4, !tbaa !364
  %237 = icmp sgt i32 %233, %236
  br i1 %237, label %238, label %267

238:                                              ; preds = %230
  %239 = load i32, ptr %9, align 4, !tbaa !11
  %240 = load ptr, ptr %6, align 8, !tbaa !133
  %241 = sext i32 %239 to i64
  %242 = getelementptr inbounds i8, ptr %240, i64 %241
  store ptr %242, ptr %6, align 8, !tbaa !133
  %243 = load ptr, ptr %4, align 8, !tbaa !141
  %244 = getelementptr inbounds nuw %struct.isoent, ptr %243, i32 0, i32 16
  %245 = load i32, ptr %244, align 4, !tbaa !364
  %246 = load ptr, ptr %5, align 8, !tbaa !141
  %247 = getelementptr inbounds nuw %struct.isoent, ptr %246, i32 0, i32 16
  %248 = load i32, ptr %247, align 4, !tbaa !364
  %249 = sub nsw i32 %245, %248
  store i32 %249, ptr %9, align 4, !tbaa !11
  br label %250

250:                                              ; preds = %265, %238
  %251 = load i32, ptr %9, align 4, !tbaa !11
  %252 = add nsw i32 %251, -1
  store i32 %252, ptr %9, align 4, !tbaa !11
  %253 = icmp ne i32 %251, 0
  br i1 %253, label %254, label %266

254:                                              ; preds = %250
  %255 = load ptr, ptr %6, align 8, !tbaa !133
  %256 = getelementptr inbounds nuw i8, ptr %255, i32 1
  store ptr %256, ptr %6, align 8, !tbaa !133
  %257 = load i8, ptr %255, align 1, !tbaa !117
  %258 = zext i8 %257 to i32
  %259 = icmp ne i32 0, %258
  br i1 %259, label %260, label %265

260:                                              ; preds = %254
  %261 = load ptr, ptr %6, align 8, !tbaa !133
  %262 = getelementptr inbounds i8, ptr %261, i64 -1
  %263 = load i8, ptr %262, align 1, !tbaa !117
  %264 = zext i8 %263 to i32
  store i32 %264, ptr %3, align 4
  store i32 1, ptr %10, align 4
  br label %270

265:                                              ; preds = %254
  br label %250, !llvm.loop !393

266:                                              ; preds = %250
  br label %267

267:                                              ; preds = %266, %230
  br label %268

268:                                              ; preds = %267, %229
  %269 = load i32, ptr %8, align 4, !tbaa !11
  store i32 %269, ptr %3, align 4
  store i32 1, ptr %10, align 4
  br label %270

270:                                              ; preds = %268, %260, %222, %189, %148, %142, %136, %125, %107, %69, %37
  call void @llvm.lifetime.end.p0(i64 4, ptr %9) #13
  call void @llvm.lifetime.end.p0(i64 4, ptr %8) #13
  call void @llvm.lifetime.end.p0(i64 8, ptr %7) #13
  call void @llvm.lifetime.end.p0(i64 8, ptr %6) #13
  %271 = load i32, ptr %3, align 4
  ret i32 %271
}