; Function Attrs: nofree nounwind memory(read, inaccessiblemem: none) uwtable
define internal fastcc i32 @isoent_cmp_joliet_identifier(ptr noundef readonly captures(none) %0, ptr noundef readonly captures(none) %1) unnamed_addr #15 {
  %3 = getelementptr inbounds nuw i8, ptr %0, i64 168
  %4 = load ptr, ptr %3, align 8, !tbaa !188
  %5 = getelementptr inbounds nuw i8, ptr %1, i64 168
  %6 = load ptr, ptr %5, align 8, !tbaa !188
  %7 = getelementptr inbounds nuw i8, ptr %0, i64 176
  %8 = load i32, ptr %7, align 8, !tbaa !323
  %9 = getelementptr inbounds nuw i8, ptr %1, i64 176
  %10 = load i32, ptr %9, align 8, !tbaa !323
  %11 = icmp sgt i32 %8, %10
  %spec.select = tail call i32 @llvm.smin.i32(i32 %8, i32 %10)
  %12 = sext i32 %spec.select to i64
  %13 = tail call i32 @memcmp(ptr noundef %4, ptr noundef %6, i64 noundef %12) #25
  %.not = icmp eq i32 %13, 0
  br i1 %.not, label %14, label %.loopexit

14:                                               ; preds = %2
  %15 = icmp slt i32 %8, %10
  br i1 %15, label %16, label %27

16:                                               ; preds = %14
  %17 = getelementptr inbounds i8, ptr %6, i64 %12
  %18 = sub nsw i32 %10, %8
  br label %19

19:                                               ; preds = %20, %16
  %.069 = phi ptr [ %17, %16 ], [ %22, %20 ]
  %.1 = phi i32 [ %18, %16 ], [ %21, %20 ]
  %.not92 = icmp eq i32 %.1, 0
  br i1 %.not92, label %.loopexit102, label %20

20:                                               ; preds = %19
  %21 = add nsw i32 %.1, -1
  %22 = getelementptr inbounds nuw i8, ptr %.069, i64 1
  %23 = load i8, ptr %.069, align 1, !tbaa !68
  %.not98 = icmp eq i8 %23, 0
  br i1 %.not98, label %19, label %24, !llvm.loop !338

24:                                               ; preds = %20
  %25 = zext i8 %23 to i32
  %26 = sub nsw i32 0, %25
  br label %.loopexit

27:                                               ; preds = %14
  br i1 %11, label %28, label %.loopexit102

28:                                               ; preds = %27
  %29 = getelementptr inbounds i8, ptr %4, i64 %12
  %30 = sub nsw i32 %8, %10
  br label %31

31:                                               ; preds = %32, %28
  %.071 = phi ptr [ %29, %28 ], [ %34, %32 ]
  %.2 = phi i32 [ %30, %28 ], [ %33, %32 ]
  %.not90 = icmp eq i32 %.2, 0
  br i1 %.not90, label %.loopexit102, label %32

32:                                               ; preds = %31
  %33 = add nsw i32 %.2, -1
  %34 = getelementptr inbounds nuw i8, ptr %.071, i64 1
  %35 = load i8, ptr %.071, align 1, !tbaa !68
  %.not91 = icmp eq i8 %35, 0
  br i1 %.not91, label %31, label %36, !llvm.loop !339

36:                                               ; preds = %32
  %37 = zext i8 %35 to i32
  br label %.loopexit

.loopexit102:                                     ; preds = %31, %19, %27
  %38 = getelementptr inbounds nuw i8, ptr %0, i64 180
  %39 = load i32, ptr %38, align 4, !tbaa !324
  switch i32 %39, label %48 [
    i32 0, label %40
    i32 2, label %44
  ]

40:                                               ; preds = %.loopexit102
  %41 = getelementptr inbounds nuw i8, ptr %1, i64 180
  %42 = load i32, ptr %41, align 4, !tbaa !324
  %43 = icmp eq i32 %42, 0
  br i1 %43, label %.loopexit, label %.thread100

44:                                               ; preds = %.loopexit102
  %45 = getelementptr inbounds nuw i8, ptr %1, i64 180
  %46 = load i32, ptr %45, align 4, !tbaa !324
  %47 = icmp eq i32 %46, 2
  br i1 %47, label %.loopexit, label %.thread100

.thread100:                                       ; preds = %44, %40
  br label %.loopexit

48:                                               ; preds = %.loopexit102
  %49 = icmp slt i32 %39, 3
  br i1 %49, label %.loopexit, label %50

50:                                               ; preds = %48
  %51 = getelementptr inbounds nuw i8, ptr %1, i64 180
  %52 = load i32, ptr %51, align 4, !tbaa !324
  %53 = icmp slt i32 %52, 3
  br i1 %53, label %.loopexit, label %54

54:                                               ; preds = %50
  %55 = icmp samesign ugt i32 %39, %52
  %spec.select99 = tail call i32 @llvm.umin.i32(i32 %39, i32 %52)
  %56 = sext i32 %8 to i64
  %57 = getelementptr inbounds i8, ptr %4, i64 %56
  %58 = sext i32 %10 to i64
  %59 = getelementptr inbounds i8, ptr %6, i64 %58
  %60 = zext nneg i32 %spec.select99 to i64
  %61 = tail call i32 @memcmp(ptr noundef %57, ptr noundef %59, i64 noundef %60) #25
  %.not93 = icmp eq i32 %61, 0
  br i1 %.not93, label %62, label %.loopexit

62:                                               ; preds = %54
  %63 = icmp samesign ult i32 %39, %52
  br i1 %63, label %64, label %75

64:                                               ; preds = %62
  %65 = getelementptr inbounds nuw i8, ptr %59, i64 %60
  %66 = sub nuw nsw i32 %52, %39
  br label %67

67:                                               ; preds = %68, %64
  %.170 = phi ptr [ %65, %64 ], [ %70, %68 ]
  %.4 = phi i32 [ %66, %64 ], [ %69, %68 ]
  %.not96 = icmp eq i32 %.4, 0
  br i1 %.not96, label %.loopexit, label %68

68:                                               ; preds = %67
  %69 = add nsw i32 %.4, -1
  %70 = getelementptr inbounds nuw i8, ptr %.170, i64 1
  %71 = load i8, ptr %.170, align 1, !tbaa !68
  %.not97 = icmp eq i8 %71, 0
  br i1 %.not97, label %67, label %72, !llvm.loop !340

72:                                               ; preds = %68
  %73 = zext i8 %71 to i32
  %74 = sub nsw i32 0, %73
  br label %.loopexit

75:                                               ; preds = %62
  br i1 %55, label %76, label %.loopexit

76:                                               ; preds = %75
  %77 = getelementptr inbounds nuw i8, ptr %57, i64 %60
  %78 = sub nuw nsw i32 %39, %52
  br label %79

79:                                               ; preds = %80, %76
  %.172 = phi ptr [ %77, %76 ], [ %82, %80 ]
  %.5 = phi i32 [ %78, %76 ], [ %81, %80 ]
  %.not94 = icmp eq i32 %.5, 0
  br i1 %.not94, label %.loopexit, label %80

80:                                               ; preds = %79
  %81 = add nsw i32 %.5, -1
  %82 = getelementptr inbounds nuw i8, ptr %.172, i64 1
  %83 = load i8, ptr %.172, align 1, !tbaa !68
  %.not95 = icmp eq i8 %83, 0
  br i1 %.not95, label %79, label %84, !llvm.loop !341

84:                                               ; preds = %80
  %85 = zext i8 %83 to i32
  br label %.loopexit

.loopexit:                                        ; preds = %79, %67, %.thread100, %75, %54, %50, %48, %44, %40, %2, %84, %72, %36, %24
  %.073 = phi i32 [ %26, %24 ], [ %74, %72 ], [ %85, %84 ], [ %37, %36 ], [ %13, %2 ], [ 0, %40 ], [ 0, %44 ], [ -1, %48 ], [ 1, %50 ], [ %61, %54 ], [ 0, %75 ], [ -1, %.thread100 ], [ 0, %67 ], [ 0, %79 ]
  ret i32 %.073
}